target datalayout = "e-m:e-p270:32:32-p271:32:32-p272:64:64-i64:64-i128:128-f80:128-n8:16:32:64-S128"
target triple = "x86_64-pc-linux-gnu"

%union.pthread_mutex_t = type { %struct.__pthread_mutex_s }
%struct.__pthread_mutex_s = type { i32, i32, i32, i32, i32, i16, i16, %struct.__pthread_internal_list }
%struct.__pthread_internal_list = type { ptr, ptr }
%struct.slurm_acct_gather_interconnect_ops = type { ptr, ptr, ptr, ptr, ptr }

@g_context_lock = internal global %union.pthread_mutex_t zeroinitializer, align 8
@.str.1 = private unnamed_addr constant [29 x i8] c"%s: pthread_mutex_lock(): %m\00", align 1
@g_context_num = internal global i32 -1, align 4
@ops = internal global ptr null, align 8
@g_context = internal global ptr null, align 8
@.str.7 = private unnamed_addr constant [31 x i8] c"%s: pthread_mutex_unlock(): %m\00", align 1
@__func__.acct_gather_interconnect_g_conf_values = private unnamed_addr constant [39 x i8] c"acct_gather_interconnect_g_conf_values\00", align 1

; Function Attrs: nounwind uwtable
define dso_local i32 @acct_gather_interconnect_g_conf_values(ptr noundef %0) #0 {
  %2 = alloca i32, align 4
  %3 = alloca ptr, align 8
  %4 = alloca i32, align 4
  %5 = alloca i32, align 4
  %6 = alloca i32, align 4
  %7 = alloca i32, align 4
  store ptr %0, ptr %3, align 8
  call void @llvm.lifetime.start.p0(i64 4, ptr %4) #6
  %8 = load i32, ptr @g_context_num, align 4
  %9 = icmp ne i32 %8, 0
  br i1 %9, label %11, label %10

10:                                               ; preds = %1
  store i32 0, ptr %2, align 4
  store i32 1, ptr %5, align 4
  br label %56

11:                                               ; preds = %1
  br label %12

12:                                               ; preds = %11
  call void @llvm.lifetime.start.p0(i64 4, ptr %6) #6
  %13 = call i32 @pthread_mutex_lock(ptr noundef @g_context_lock) #6
  store i32 %13, ptr %6, align 4
  %14 = load i32, ptr %6, align 4
  %15 = icmp ne i32 %14, 0
  br i1 %15, label %16, label %19

16:                                               ; preds = %12
  %17 = load i32, ptr %6, align 4
  %18 = call ptr @__errno_location() #7
  store i32 %17, ptr %18, align 4
  call void (ptr, ...) @fatal_abort(ptr noundef @.str.1, ptr noundef @__func__.acct_gather_interconnect_g_conf_values) #8
  unreachable

19:                                               ; preds = %12
  call void @llvm.lifetime.end.p0(i64 4, ptr %6) #6
  br label %20

20:                                               ; preds = %19
  br label %21

21:                                               ; preds = %20
  store i32 0, ptr %4, align 4
  br label %22

22:                                               ; preds = %42, %21
  %23 = load i32, ptr %4, align 4
  %24 = load i32, ptr @g_context_num, align 4
  %25 = icmp slt i32 %23, %24
  br i1 %25, label %26, label %45

26:                                               ; preds = %22
  %27 = load ptr, ptr @g_context, align 8
  %28 = load i32, ptr %4, align 4
  %29 = sext i32 %28 to i64
  %30 = getelementptr inbounds ptr, ptr %27, i64 %29
  %31 = load ptr, ptr %30, align 8
  %32 = icmp ne ptr %31, null
  br i1 %32, label %34, label %33

33:                                               ; preds = %26
  br label %42

34:                                               ; preds = %26
  %35 = load ptr, ptr @ops, align 8
  %36 = load i32, ptr %4, align 4
  %37 = sext i32 %36 to i64
  %38 = getelementptr inbounds %struct.slurm_acct_gather_interconnect_ops, ptr %35, i64 %37
  %39 = getelementptr inbounds nuw %struct.slurm_acct_gather_interconnect_ops, ptr %38, i32 0, i32 3
  %40 = load ptr, ptr %39, align 8
  %41 = load ptr, ptr %3, align 8
  call void %40(ptr noundef %41)
  br label %42

42:                                               ; preds = %34, %33
  %43 = load i32, ptr %4, align 4
  %44 = add nsw i32 %43, 1
  store i32 %44, ptr %4, align 4
  br label %22, !llvm.loop !18

45:                                               ; preds = %22
  br label %46

46:                                               ; preds = %45
  call void @llvm.lifetime.start.p0(i64 4, ptr %7) #6
  %47 = call i32 @pthread_mutex_unlock(ptr noundef @g_context_lock) #6
  store i32 %47, ptr %7, align 4
  %48 = load i32, ptr %7, align 4
  %49 = icmp ne i32 %48, 0
  br i1 %49, label %50, label %53

50:                                               ; preds = %46
  %51 = load i32, ptr %7, align 4
  %52 = call ptr @__errno_location() #7
  store i32 %51, ptr %52, align 4
  call void (ptr, ...) @fatal_abort(ptr noundef @.str.7, ptr noundef @__func__.acct_gather_interconnect_g_conf_values) #8
  unreachable

53:                                               ; preds = %46
  call void @llvm.lifetime.end.p0(i64 4, ptr %7) #6
  br label %54

54:                                               ; preds = %53
  br label %55

55:                                               ; preds = %54
  store i32 0, ptr %2, align 4
  store i32 1, ptr %5, align 4
  br label %56

56:                                               ; preds = %55, %10
  call void @llvm.lifetime.end.p0(i64 4, ptr %4) #6
  %57 = load i32, ptr %2, align 4
  ret i32 %57
}