; Function Attrs: nounwind uwtable
define dso_local noundef i32 @acct_gather_interconnect_g_conf_values(ptr noundef %0) local_unnamed_addr #0 {
  %2 = load i32, ptr @g_context_num, align 4
  %.not = icmp eq i32 %2, 0
  br i1 %.not, label %25, label %3

3:                                                ; preds = %1
  %4 = tail call i32 @pthread_mutex_lock(ptr noundef nonnull @g_context_lock) #7
  %.not11 = icmp eq i32 %4, 0
  br i1 %.not11, label %.preheader, label %7

.preheader:                                       ; preds = %3
  %5 = load i32, ptr @g_context_num, align 4
  %6 = icmp sgt i32 %5, 0
  br i1 %6, label %.lr.ph.preheader, label %._crit_edge

.lr.ph.preheader:                                 ; preds = %.preheader
  %.pre16 = load ptr, ptr @g_context, align 8
  br label %.lr.ph

7:                                                ; preds = %3
  %8 = tail call ptr @__errno_location() #8
  store i32 %4, ptr %8, align 4
  tail call void (ptr, ...) @fatal_abort(ptr noundef nonnull @.str.1, ptr noundef nonnull @__func__.acct_gather_interconnect_g_conf_values) #9
  unreachable

.lr.ph:                                           ; preds = %.lr.ph.preheader, %17
  %9 = phi i32 [ %5, %.lr.ph.preheader ], [ %18, %17 ]
  %10 = phi ptr [ %.pre16, %.lr.ph.preheader ], [ %19, %17 ]
  %indvars.iv = phi i64 [ 0, %.lr.ph.preheader ], [ %indvars.iv.next, %17 ]
  %11 = getelementptr inbounds nuw ptr, ptr %10, i64 %indvars.iv
  %12 = load ptr, ptr %11, align 8
  %.not13 = icmp eq ptr %12, null
  br i1 %.not13, label %17, label %13

13:                                               ; preds = %.lr.ph
  %14 = load ptr, ptr @ops, align 8
  %15 = getelementptr inbounds nuw %struct.slurm_acct_gather_interconnect_ops, ptr %14, i64 %indvars.iv, i32 3
  %16 = load ptr, ptr %15, align 8
  tail call void %16(ptr noundef %0) #7
  %.pre = load ptr, ptr @g_context, align 8
  %.pre17 = load i32, ptr @g_context_num, align 4
  br label %17

17:                                               ; preds = %.lr.ph, %13
  %18 = phi i32 [ %9, %.lr.ph ], [ %.pre17, %13 ]
  %19 = phi ptr [ %10, %.lr.ph ], [ %.pre, %13 ]
  %indvars.iv.next = add nuw nsw i64 %indvars.iv, 1
  %20 = sext i32 %18 to i64
  %21 = icmp slt i64 %indvars.iv.next, %20
  br i1 %21, label %.lr.ph, label %._crit_edge, !llvm.loop !16

._crit_edge:                                      ; preds = %17, %.preheader
  %22 = tail call i32 @pthread_mutex_unlock(ptr noundef nonnull @g_context_lock) #7
  %.not12 = icmp eq i32 %22, 0
  br i1 %.not12, label %25, label %23

23:                                               ; preds = %._crit_edge
  %24 = tail call ptr @__errno_location() #8
  store i32 %22, ptr %24, align 4
  tail call void (ptr, ...) @fatal_abort(ptr noundef nonnull @.str.7, ptr noundef nonnull @__func__.acct_gather_interconnect_g_conf_values) #9
  unreachable

25:                                               ; preds = %._crit_edge, %1
  ret i32 0
}